target datalayout = "e-m:e-p270:32:32-p271:32:32-p272:64:64-i64:64-i128:128-f80:128-n8:16:32:64-S128"
target triple = "x86_64-pc-linux-gnu"

%struct.packing_data = type { ptr, ptr, i32, i32, ptr, i32, ptr, ptr, ptr, ptr, %union.pthread_mutex_t, ptr, i32, i32, i64, i64, ptr, ptr, ptr }
%union.pthread_mutex_t = type { %struct.__pthread_mutex_s }
%struct.__pthread_mutex_s = type { i32, i32, i32, i32, i32, i16, i16, %struct.__pthread_internal_list }
%struct.__pthread_internal_list = type { ptr, ptr }
%struct.object_entry = type { %struct.pack_idx_entry, ptr, i64, i32, i32, i32, i32, i32, [3 x i8], i8, i64 }
%struct.pack_idx_entry = type { %struct.object_id, i32, i64 }
%struct.object_id = type { [32 x i8], i32 }

@to_pack = internal global %struct.packing_data zeroinitializer, align 8

; Function Attrs: inlinehint nounwind uwtable
define internal i32 @oidcmp(ptr noundef %0, ptr noundef %1) #2 {
  %3 = alloca ptr, align 8
  %4 = alloca ptr, align 8
  store ptr %0, ptr %3, align 8, !tbaa !190
  store ptr %1, ptr %4, align 8, !tbaa !190
  %5 = load ptr, ptr %3, align 8, !tbaa !190
  %6 = getelementptr inbounds nuw %struct.object_id, ptr %5, i32 0, i32 0
  %7 = getelementptr inbounds [32 x i8], ptr %6, i64 0, i64 0
  %8 = load ptr, ptr %4, align 8, !tbaa !190
  %9 = getelementptr inbounds nuw %struct.object_id, ptr %8, i32 0, i32 0
  %10 = getelementptr inbounds [32 x i8], ptr %9, i64 0, i64 0
  %11 = call i32 @memcmp(ptr noundef %7, ptr noundef %10, i64 noundef 32) #13
  ret i32 %11
}

; Function Attrs: inlinehint nounwind uwtable
define internal ptr @oe_in_pack(ptr noundef %0, ptr noundef %1) #2 {
  %3 = alloca ptr, align 8
  %4 = alloca ptr, align 8
  %5 = alloca ptr, align 8
  store ptr %0, ptr %4, align 8, !tbaa !4
  store ptr %1, ptr %5, align 8, !tbaa !9
  %6 = load ptr, ptr %4, align 8, !tbaa !4
  %7 = getelementptr inbounds nuw %struct.packing_data, ptr %6, i32 0, i32 8
  %8 = load ptr, ptr %7, align 8, !tbaa !28
  %9 = icmp ne ptr %8, null
  br i1 %9, label %10, label %22

10:                                               ; preds = %2
  %11 = load ptr, ptr %4, align 8, !tbaa !4
  %12 = getelementptr inbounds nuw %struct.packing_data, ptr %11, i32 0, i32 8
  %13 = load ptr, ptr %12, align 8, !tbaa !28
  %14 = load ptr, ptr %5, align 8, !tbaa !9
  %15 = getelementptr inbounds nuw %struct.object_entry, ptr %14, i32 0, i32 10
  %16 = load i64, ptr %15, align 8
  %17 = and i64 %16, 1023
  %18 = trunc i64 %17 to i32
  %19 = zext i32 %18 to i64
  %20 = getelementptr inbounds nuw ptr, ptr %13, i64 %19
  %21 = load ptr, ptr %20, align 8, !tbaa !15
  store ptr %21, ptr %3, align 8
  br label %36

22:                                               ; preds = %2
  %23 = load ptr, ptr %4, align 8, !tbaa !4
  %24 = getelementptr inbounds nuw %struct.packing_data, ptr %23, i32 0, i32 9
  %25 = load ptr, ptr %24, align 8, !tbaa !33
  %26 = load ptr, ptr %5, align 8, !tbaa !9
  %27 = load ptr, ptr %4, align 8, !tbaa !4
  %28 = getelementptr inbounds nuw %struct.packing_data, ptr %27, i32 0, i32 1
  %29 = load ptr, ptr %28, align 8, !tbaa !34
  %30 = ptrtoint ptr %26 to i64
  %31 = ptrtoint ptr %29 to i64
  %32 = sub i64 %30, %31
  %33 = sdiv exact i64 %32, 96
  %34 = getelementptr inbounds ptr, ptr %25, i64 %33
  %35 = load ptr, ptr %34, align 8, !tbaa !15
  store ptr %35, ptr %3, align 8
  br label %36

36:                                               ; preds = %22, %10
  %37 = load ptr, ptr %3, align 8
  ret ptr %37
}

; Function Attrs: nounwind uwtable
define internal i32 @pack_offset_sort(ptr noundef %0, ptr noundef %1) #0 {
  %3 = alloca i32, align 4
  %4 = alloca ptr, align 8
  %5 = alloca ptr, align 8
  %6 = alloca ptr, align 8
  %7 = alloca ptr, align 8
  %8 = alloca ptr, align 8
  %9 = alloca ptr, align 8
  %10 = alloca i32, align 4
  store ptr %0, ptr %4, align 8, !tbaa !134
  store ptr %1, ptr %5, align 8, !tbaa !134
  call void @llvm.lifetime.start.p0(i64 8, ptr %6) #11
  %11 = load ptr, ptr %4, align 8, !tbaa !134
  %12 = load ptr, ptr %11, align 8, !tbaa !9
  store ptr %12, ptr %6, align 8, !tbaa !9
  call void @llvm.lifetime.start.p0(i64 8, ptr %7) #11
  %13 = load ptr, ptr %5, align 8, !tbaa !134
  %14 = load ptr, ptr %13, align 8, !tbaa !9
  store ptr %14, ptr %7, align 8, !tbaa !9
  call void @llvm.lifetime.start.p0(i64 8, ptr %8) #11
  %15 = load ptr, ptr %6, align 8, !tbaa !9
  %16 = call ptr @oe_in_pack(ptr noundef @to_pack, ptr noundef %15)
  store ptr %16, ptr %8, align 8, !tbaa !15
  call void @llvm.lifetime.start.p0(i64 8, ptr %9) #11
  %17 = load ptr, ptr %7, align 8, !tbaa !9
  %18 = call ptr @oe_in_pack(ptr noundef @to_pack, ptr noundef %17)
  store ptr %18, ptr %9, align 8, !tbaa !15
  %19 = load ptr, ptr %8, align 8, !tbaa !15
  %20 = icmp ne ptr %19, null
  br i1 %20, label %32, label %21

21:                                               ; preds = %2
  %22 = load ptr, ptr %9, align 8, !tbaa !15
  %23 = icmp ne ptr %22, null
  br i1 %23, label %32, label %24

24:                                               ; preds = %21
  %25 = load ptr, ptr %6, align 8, !tbaa !9
  %26 = getelementptr inbounds nuw %struct.object_entry, ptr %25, i32 0, i32 0
  %27 = getelementptr inbounds nuw %struct.pack_idx_entry, ptr %26, i32 0, i32 0
  %28 = load ptr, ptr %7, align 8, !tbaa !9
  %29 = getelementptr inbounds nuw %struct.object_entry, ptr %28, i32 0, i32 0
  %30 = getelementptr inbounds nuw %struct.pack_idx_entry, ptr %29, i32 0, i32 0
  %31 = call i32 @oidcmp(ptr noundef %27, ptr noundef %30)
  store i32 %31, ptr %3, align 4
  store i32 1, ptr %10, align 4
  br label %62

32:                                               ; preds = %21, %2
  %33 = load ptr, ptr %8, align 8, !tbaa !15
  %34 = load ptr, ptr %9, align 8, !tbaa !15
  %35 = icmp ult ptr %33, %34
  br i1 %35, label %36, label %37

36:                                               ; preds = %32
  store i32 -1, ptr %3, align 4
  store i32 1, ptr %10, align 4
  br label %62

37:                                               ; preds = %32
  %38 = load ptr, ptr %8, align 8, !tbaa !15
  %39 = load ptr, ptr %9, align 8, !tbaa !15
  %40 = icmp ugt ptr %38, %39
  br i1 %40, label %41, label %42

41:                                               ; preds = %37
  store i32 1, ptr %3, align 4
  store i32 1, ptr %10, align 4
  br label %62

42:                                               ; preds = %37
  %43 = load ptr, ptr %6, align 8, !tbaa !9
  %44 = getelementptr inbounds nuw %struct.object_entry, ptr %43, i32 0, i32 2
  %45 = load i64, ptr %44, align 8, !tbaa !19
  %46 = load ptr, ptr %7, align 8, !tbaa !9
  %47 = getelementptr inbounds nuw %struct.object_entry, ptr %46, i32 0, i32 2
  %48 = load i64, ptr %47, align 8, !tbaa !19
  %49 = icmp slt i64 %45, %48
  br i1 %49, label %50, label %51

50:                                               ; preds = %42
  br label %60

51:                                               ; preds = %42
  %52 = load ptr, ptr %6, align 8, !tbaa !9
  %53 = getelementptr inbounds nuw %struct.object_entry, ptr %52, i32 0, i32 2
  %54 = load i64, ptr %53, align 8, !tbaa !19
  %55 = load ptr, ptr %7, align 8, !tbaa !9
  %56 = getelementptr inbounds nuw %struct.object_entry, ptr %55, i32 0, i32 2
  %57 = load i64, ptr %56, align 8, !tbaa !19
  %58 = icmp sgt i64 %54, %57
  %59 = zext i1 %58 to i32
  br label %60

60:                                               ; preds = %51, %50
  %61 = phi i32 [ -1, %50 ], [ %59, %51 ]
  store i32 %61, ptr %3, align 4
  store i32 1, ptr %10, align 4
  br label %62

62:                                               ; preds = %60, %41, %36, %24
  call void @llvm.lifetime.end.p0(i64 8, ptr %9) #11
  call void @llvm.lifetime.end.p0(i64 8, ptr %8) #11
  call void @llvm.lifetime.end.p0(i64 8, ptr %7) #11
  call void @llvm.lifetime.end.p0(i64 8, ptr %6) #11
  %63 = load i32, ptr %3, align 4
  ret i32 %63
}