; Function Attrs: mustprogress nofree nounwind willreturn memory(read, inaccessiblemem: none) uwtable
define internal i32 @pack_offset_sort(ptr noundef readonly captures(none) %0, ptr noundef readonly captures(none) %1) #19 {
  %3 = load ptr, ptr %0, align 8, !tbaa !159
  %4 = load ptr, ptr %1, align 8, !tbaa !159
  %5 = load ptr, ptr getelementptr inbounds nuw (i8, ptr @to_pack, i64 56), align 8, !tbaa !9
  %.not.i = icmp eq ptr %5, null
  br i1 %.not.i, label %15, label %6

6:                                                ; preds = %2
  %7 = getelementptr inbounds nuw i8, ptr %3, i64 88
  %8 = load i64, ptr %7, align 8
  %9 = and i64 %8, 1023
  %10 = getelementptr inbounds nuw ptr, ptr %5, i64 %9
  %11 = getelementptr inbounds nuw i8, ptr %4, i64 88
  %12 = load i64, ptr %11, align 8
  %13 = and i64 %12, 1023
  %14 = getelementptr inbounds nuw ptr, ptr %5, i64 %13
  br label %oe_in_pack.exit24

15:                                               ; preds = %2
  %16 = load ptr, ptr getelementptr inbounds nuw (i8, ptr @to_pack, i64 64), align 8, !tbaa !18
  %17 = load ptr, ptr getelementptr inbounds nuw (i8, ptr @to_pack, i64 8), align 8, !tbaa !19
  %18 = ptrtoint ptr %3 to i64
  %19 = ptrtoint ptr %17 to i64
  %20 = sub i64 %18, %19
  %21 = sdiv exact i64 %20, 12
  %22 = getelementptr inbounds i8, ptr %16, i64 %21
  %23 = ptrtoint ptr %4 to i64
  %24 = sub i64 %23, %19
  %25 = sdiv exact i64 %24, 12
  %26 = getelementptr inbounds i8, ptr %16, i64 %25
  br label %oe_in_pack.exit24

oe_in_pack.exit24:                                ; preds = %6, %15
  %.0.i27.in = phi ptr [ %10, %6 ], [ %22, %15 ]
  %.0.in.i22 = phi ptr [ %14, %6 ], [ %26, %15 ]
  %.0.i27 = load ptr, ptr %.0.i27.in, align 8, !tbaa !20
  %.0.i23 = load ptr, ptr %.0.in.i22, align 8, !tbaa !20
  %27 = icmp ne ptr %.0.i27, null
  %28 = icmp ne ptr %.0.i23, null
  %or.cond = select i1 %27, i1 true, i1 %28
  br i1 %or.cond, label %31, label %29

29:                                               ; preds = %oe_in_pack.exit24
  %30 = tail call i32 @memcmp(ptr noundef nonnull readonly dereferenceable(32) %3, ptr noundef nonnull readonly dereferenceable(32) %4, i64 noundef 32) #28
  br label %41

31:                                               ; preds = %oe_in_pack.exit24
  %32 = icmp ult ptr %.0.i27, %.0.i23
  br i1 %32, label %41, label %33

33:                                               ; preds = %31
  %34 = icmp ugt ptr %.0.i27, %.0.i23
  br i1 %34, label %41, label %35

35:                                               ; preds = %33
  %36 = getelementptr inbounds nuw i8, ptr %3, i64 56
  %37 = load i64, ptr %36, align 8, !tbaa !24
  %38 = getelementptr inbounds nuw i8, ptr %4, i64 56
  %39 = load i64, ptr %38, align 8, !tbaa !24
  %40 = tail call i32 @llvm.scmp.i32.i64(i64 %37, i64 %39)
  br label %41

41:                                               ; preds = %33, %31, %35, %29
  %.0 = phi i32 [ %40, %35 ], [ %30, %29 ], [ -1, %31 ], [ 1, %33 ]
  ret i32 %.0
}